target datalayout = "e-m:e-p270:32:32-p271:32:32-p272:64:64-i64:64-i128:128-f80:128-n8:16:32:64-S128"
target triple = "x86_64-pc-linux-gnu"

%struct.stbi__zbuf = type { ptr, ptr, i32, i32, ptr, ptr, ptr, i32, %struct.stbi__zhuffman, %struct.stbi__zhuffman }
%struct.stbi__zhuffman = type { [512 x i16], [16 x i16], [17 x i32], [16 x i16], [288 x i8], [288 x i16] }

; Function Attrs: mustprogress nounwind uwtable
define internal noundef ptr @_ZL12stbi__mallocm(i64 noundef %0) #0 {
  %2 = alloca i64, align 8
  store i64 %0, ptr %2, align 8, !tbaa !40
  %3 = load i64, ptr %2, align 8, !tbaa !40
  %4 = call noalias ptr @malloc(i64 noundef %3) #24
  ret ptr %4
}

; Function Attrs: mustprogress uwtable
define dso_local ptr @stbi_zlib_decode_malloc_guesssize_headerflag(ptr noundef %0, i32 noundef %1, i32 noundef %2, ptr noundef %3, i32 noundef %4) #2 {
  %6 = alloca ptr, align 8
  %7 = alloca ptr, align 8
  %8 = alloca i32, align 4
  %9 = alloca i32, align 4
  %10 = alloca ptr, align 8
  %11 = alloca i32, align 4
  %12 = alloca %struct.stbi__zbuf, align 8
  %13 = alloca ptr, align 8
  %14 = alloca i32, align 4
  store ptr %0, ptr %7, align 8, !tbaa !5
  store i32 %1, ptr %8, align 4, !tbaa !11
  store i32 %2, ptr %9, align 4, !tbaa !11
  store ptr %3, ptr %10, align 8, !tbaa !13
  store i32 %4, ptr %11, align 4, !tbaa !11
  call void @llvm.lifetime.start.p0(i64 4096, ptr %12) #22
  call void @llvm.lifetime.start.p0(i64 8, ptr %13) #22
  %15 = load i32, ptr %9, align 4, !tbaa !11
  %16 = sext i32 %15 to i64
  %17 = call noundef ptr @_ZL12stbi__mallocm(i64 noundef %16)
  store ptr %17, ptr %13, align 8, !tbaa !5
  %18 = load ptr, ptr %13, align 8, !tbaa !5
  %19 = icmp eq ptr %18, null
  br i1 %19, label %20, label %21

20:                                               ; preds = %5
  store ptr null, ptr %6, align 8
  store i32 1, ptr %14, align 4
  br label %53

21:                                               ; preds = %5
  %22 = load ptr, ptr %7, align 8, !tbaa !5
  %23 = getelementptr inbounds nuw %struct.stbi__zbuf, ptr %12, i32 0, i32 0
  store ptr %22, ptr %23, align 8, !tbaa !114
  %24 = load ptr, ptr %7, align 8, !tbaa !5
  %25 = load i32, ptr %8, align 4, !tbaa !11
  %26 = sext i32 %25 to i64
  %27 = getelementptr inbounds i8, ptr %24, i64 %26
  %28 = getelementptr inbounds nuw %struct.stbi__zbuf, ptr %12, i32 0, i32 1
  store ptr %27, ptr %28, align 8, !tbaa !117
  %29 = load ptr, ptr %13, align 8, !tbaa !5
  %30 = load i32, ptr %9, align 4, !tbaa !11
  %31 = load i32, ptr %11, align 4, !tbaa !11
  %32 = call noundef i32 @_ZL13stbi__do_zlibP10stbi__zbufPciii(ptr noundef %12, ptr noundef %29, i32 noundef %30, i32 noundef 1, i32 noundef %31)
  %33 = icmp ne i32 %32, 0
  br i1 %33, label %34, label %50

34:                                               ; preds = %21
  %35 = load ptr, ptr %10, align 8, !tbaa !13
  %36 = icmp ne ptr %35, null
  br i1 %36, label %37, label %47

37:                                               ; preds = %34
  %38 = getelementptr inbounds nuw %struct.stbi__zbuf, ptr %12, i32 0, i32 4
  %39 = load ptr, ptr %38, align 8, !tbaa !118
  %40 = getelementptr inbounds nuw %struct.stbi__zbuf, ptr %12, i32 0, i32 5
  %41 = load ptr, ptr %40, align 8, !tbaa !119
  %42 = ptrtoint ptr %39 to i64
  %43 = ptrtoint ptr %41 to i64
  %44 = sub i64 %42, %43
  %45 = trunc i64 %44 to i32
  %46 = load ptr, ptr %10, align 8, !tbaa !13
  store i32 %45, ptr %46, align 4, !tbaa !11
  br label %47

47:                                               ; preds = %37, %34
  %48 = getelementptr inbounds nuw %struct.stbi__zbuf, ptr %12, i32 0, i32 5
  %49 = load ptr, ptr %48, align 8, !tbaa !119
  store ptr %49, ptr %6, align 8
  store i32 1, ptr %14, align 4
  br label %53

50:                                               ; preds = %21
  %51 = getelementptr inbounds nuw %struct.stbi__zbuf, ptr %12, i32 0, i32 5
  %52 = load ptr, ptr %51, align 8, !tbaa !119
  call void @free(ptr noundef %52) #22
  store ptr null, ptr %6, align 8
  store i32 1, ptr %14, align 4
  br label %53

53:                                               ; preds = %50, %47, %20
  call void @llvm.lifetime.end.p0(i64 8, ptr %13) #22
  call void @llvm.lifetime.end.p0(i64 4096, ptr %12) #22
  %54 = load ptr, ptr %6, align 8
  ret ptr %54
}