; Function Attrs: mustprogress nounwind uwtable
define dso_local ptr @stbi_zlib_decode_malloc_guesssize_headerflag(ptr noundef %0, i32 noundef %1, i32 noundef %2, ptr noundef writeonly %3, i32 noundef %4) local_unnamed_addr #12 {
  %6 = alloca %struct.stbi__zbuf, align 8
  call void @llvm.lifetime.start.p0(i64 4096, ptr nonnull %6) #35
  %7 = sext i32 %2 to i64
  %8 = tail call noalias noundef ptr @malloc(i64 noundef range(i64 -2147483648, 4294967296) %7) #36
  %9 = icmp eq ptr %8, null
  br i1 %9, label %28, label %10

10:                                               ; preds = %5
  store ptr %0, ptr %6, align 8, !tbaa !169
  %11 = sext i32 %1 to i64
  %12 = getelementptr inbounds i8, ptr %0, i64 %11
  %13 = getelementptr inbounds nuw i8, ptr %6, i64 8
  store ptr %12, ptr %13, align 8, !tbaa !172
  %14 = call fastcc noundef i32 @_ZL13stbi__do_zlibP10stbi__zbufPciii(ptr noundef %6, ptr noundef nonnull %8, i32 noundef %2, i32 noundef 1, i32 noundef %4)
  %.not = icmp eq i32 %14, 0
  br i1 %.not, label %25, label %15

15:                                               ; preds = %10
  %.not12 = icmp eq ptr %3, null
  br i1 %.not12, label %._crit_edge, label %16

._crit_edge:                                      ; preds = %15
  %.phi.trans.insert = getelementptr inbounds nuw i8, ptr %6, i64 32
  %.pre = load ptr, ptr %.phi.trans.insert, align 8, !tbaa !173
  br label %28

16:                                               ; preds = %15
  %17 = getelementptr inbounds nuw i8, ptr %6, i64 24
  %18 = load ptr, ptr %17, align 8, !tbaa !174
  %19 = getelementptr inbounds nuw i8, ptr %6, i64 32
  %20 = load ptr, ptr %19, align 8, !tbaa !173
  %21 = ptrtoint ptr %18 to i64
  %22 = ptrtoint ptr %20 to i64
  %23 = sub i64 %21, %22
  %24 = trunc i64 %23 to i32
  store i32 %24, ptr %3, align 4, !tbaa !10
  br label %28

25:                                               ; preds = %10
  %26 = getelementptr inbounds nuw i8, ptr %6, i64 32
  %27 = load ptr, ptr %26, align 8, !tbaa !173
  call void @free(ptr noundef %27) #35
  br label %28

28:                                               ; preds = %16, %._crit_edge, %5, %25
  %.0 = phi ptr [ null, %25 ], [ null, %5 ], [ %.pre, %._crit_edge ], [ %20, %16 ]
  call void @llvm.lifetime.end.p0(i64 4096, ptr nonnull %6) #35
  ret ptr %.0
}